target datalayout = "e-m:e-p270:32:32-p271:32:32-p272:64:64-i64:64-i128:128-f80:128-n8:16:32:64-S128"
target triple = "x86_64-pc-linux-gnu"

%"class.base::Time" = type { %"class.base::time_internal::TimeBase" }
%"class.base::time_internal::TimeBase" = type { i64 }
%struct.timespec = type { i64, i64 }
%"class.base::File" = type <{ %"class.base::ScopedGeneric", [4 x i8], %"class.base::FilePath", [4 x i8], i32, i8, i8, [6 x i8] }>
%"class.base::ScopedGeneric" = type { %"struct.base::ScopedGeneric<int, base::internal::ScopedFDCloseTraits>::Data" }
%"struct.base::ScopedGeneric<int, base::internal::ScopedFDCloseTraits>::Data" = type { i32 }
%"class.base::FilePath" = type { %"class.std::__cxx11::basic_string" }
%"class.std::__cxx11::basic_string" = type { %"struct.std::__cxx11::basic_string<char>::_Alloc_hider", i64, %union.anon }
%"struct.std::__cxx11::basic_string<char>::_Alloc_hider" = type { ptr }
%union.anon = type { i64, [8 x i8] }
%"class.base::FileTracing::ScopedTrace" = type { ptr, ptr }
%struct.timeval = type { i64, i64 }

@.str.11 = private unnamed_addr constant [15 x i8] c"File::SetTimes\00", align 1

; Function Attrs: mustprogress nounwind uwtable
define internal noundef i32 @_ZN4base12_GLOBAL__N_111CallFutimesEiPK7timeval(i32 noundef %0, ptr noundef %1) #4 {
  %3 = alloca i32, align 4
  %4 = alloca ptr, align 8
  %5 = alloca [2 x %struct.timespec], align 16
  store i32 %0, ptr %3, align 4, !tbaa !41
  store ptr %1, ptr %4, align 8, !tbaa !62
  call void @llvm.lifetime.start.p0(i64 32, ptr %5) #14
  %6 = load ptr, ptr %4, align 8, !tbaa !62
  %7 = getelementptr inbounds %struct.timeval, ptr %6, i64 0
  %8 = getelementptr inbounds nuw %struct.timeval, ptr %7, i32 0, i32 0
  %9 = load i64, ptr %8, align 8, !tbaa !64
  %10 = getelementptr inbounds [2 x %struct.timespec], ptr %5, i64 0, i64 0
  %11 = getelementptr inbounds nuw %struct.timespec, ptr %10, i32 0, i32 0
  store i64 %9, ptr %11, align 16, !tbaa !66
  %12 = load ptr, ptr %4, align 8, !tbaa !62
  %13 = getelementptr inbounds %struct.timeval, ptr %12, i64 0
  %14 = getelementptr inbounds nuw %struct.timeval, ptr %13, i32 0, i32 1
  %15 = load i64, ptr %14, align 8, !tbaa !67
  %16 = mul nsw i64 %15, 1000
  %17 = getelementptr inbounds [2 x %struct.timespec], ptr %5, i64 0, i64 0
  %18 = getelementptr inbounds nuw %struct.timespec, ptr %17, i32 0, i32 1
  store i64 %16, ptr %18, align 8, !tbaa !68
  %19 = load ptr, ptr %4, align 8, !tbaa !62
  %20 = getelementptr inbounds %struct.timeval, ptr %19, i64 1
  %21 = getelementptr inbounds nuw %struct.timeval, ptr %20, i32 0, i32 0
  %22 = load i64, ptr %21, align 8, !tbaa !64
  %23 = getelementptr inbounds [2 x %struct.timespec], ptr %5, i64 0, i64 1
  %24 = getelementptr inbounds nuw %struct.timespec, ptr %23, i32 0, i32 0
  store i64 %22, ptr %24, align 16, !tbaa !66
  %25 = load ptr, ptr %4, align 8, !tbaa !62
  %26 = getelementptr inbounds %struct.timeval, ptr %25, i64 1
  %27 = getelementptr inbounds nuw %struct.timeval, ptr %26, i32 0, i32 1
  %28 = load i64, ptr %27, align 8, !tbaa !67
  %29 = mul nsw i64 %28, 1000
  %30 = getelementptr inbounds [2 x %struct.timespec], ptr %5, i64 0, i64 1
  %31 = getelementptr inbounds nuw %struct.timespec, ptr %30, i32 0, i32 1
  store i64 %29, ptr %31, align 8, !tbaa !68
  %32 = load i32, ptr %3, align 4, !tbaa !41
  %33 = getelementptr inbounds [2 x %struct.timespec], ptr %5, i64 0, i64 0
  %34 = call i32 @futimens(i32 noundef %32, ptr noundef %33) #14
  call void @llvm.lifetime.end.p0(i64 32, ptr %5) #14
  ret i32 %34
}

; Function Attrs: mustprogress nounwind uwtable
define linkonce_odr noundef nonnull align 4 dereferenceable(4) ptr @_ZNK4base13ScopedGenericIiNS_8internal19ScopedFDCloseTraitsEE3getEv(ptr noundef nonnull align 4 dereferenceable(4) %0) #4 comdat align 2 {
  %2 = alloca ptr, align 8
  store ptr %0, ptr %2, align 8, !tbaa !36
  %3 = load ptr, ptr %2, align 8
  %4 = getelementptr inbounds nuw %"class.base::ScopedGeneric", ptr %3, i32 0, i32 0
  %5 = getelementptr inbounds nuw %"struct.base::ScopedGeneric<int, base::internal::ScopedFDCloseTraits>::Data", ptr %4, i32 0, i32 0
  ret ptr %5
}

; Function Attrs: mustprogress nounwind uwtable
define linkonce_odr void @_ZN4base18ThreadRestrictions15AssertIOAllowedEv() #4 comdat align 2 {
  ret void
}

; Function Attrs: mustprogress uwtable
define noundef zeroext i1 @_ZN4base4File8SetTimesENS_4TimeES1_(ptr noundef nonnull align 8 dereferenceable(50) %0, i64 %1, i64 %2) #0 align 2 personality ptr @__gxx_personality_v0 {
  %4 = alloca %"class.base::Time", align 8
  %5 = alloca %"class.base::Time", align 8
  %6 = alloca ptr, align 8
  %7 = alloca %"class.base::FileTracing::ScopedTrace", align 8
  %8 = alloca ptr, align 8
  %9 = alloca i32, align 4
  %10 = alloca [2 x %struct.timeval], align 16
  %11 = alloca %struct.timeval, align 8
  %12 = alloca %struct.timeval, align 8
  %13 = getelementptr inbounds nuw %"class.base::Time", ptr %4, i32 0, i32 0
  %14 = getelementptr inbounds nuw %"class.base::time_internal::TimeBase", ptr %13, i32 0, i32 0
  store i64 %1, ptr %14, align 8
  %15 = getelementptr inbounds nuw %"class.base::Time", ptr %5, i32 0, i32 0
  %16 = getelementptr inbounds nuw %"class.base::time_internal::TimeBase", ptr %15, i32 0, i32 0
  store i64 %2, ptr %16, align 8
  store ptr %0, ptr %6, align 8, !tbaa !34
  %17 = load ptr, ptr %6, align 8
  call void @_ZN4base18ThreadRestrictions15AssertIOAllowedEv()
  call void @llvm.lifetime.start.p0(i64 16, ptr %7) #14
  call void @_ZN4base11FileTracing11ScopedTraceC1Ev(ptr noundef nonnull align 8 dereferenceable(16) %7)
  %18 = invoke noundef zeroext i1 @_ZN4base11FileTracing17IsCategoryEnabledEv()
          to label %19 unwind label %22

19:                                               ; preds = %3
  br i1 %18, label %20, label %26

20:                                               ; preds = %19
  invoke void @_ZN4base11FileTracing11ScopedTrace10InitializeEPKcPKNS_4FileEl(ptr noundef nonnull align 8 dereferenceable(16) %7, ptr noundef @.str.11, ptr noundef %17, i64 noundef 0)
          to label %21 unwind label %22

21:                                               ; preds = %20
  br label %26

22:                                               ; preds = %20, %3
  %23 = landingpad { ptr, i32 }
          cleanup
  %24 = extractvalue { ptr, i32 } %23, 0
  store ptr %24, ptr %8, align 8
  %25 = extractvalue { ptr, i32 } %23, 1
  store i32 %25, ptr %9, align 4
  br label %63

26:                                               ; preds = %21, %19
  call void @llvm.lifetime.start.p0(i64 32, ptr %10) #14
  call void @llvm.lifetime.start.p0(i64 16, ptr %11) #14
  %27 = invoke { i64, i64 } @_ZNK4base4Time9ToTimeValEv(ptr noundef nonnull align 8 dereferenceable(8) %4)
          to label %28 unwind label %50

28:                                               ; preds = %26
  %29 = getelementptr inbounds nuw { i64, i64 }, ptr %11, i32 0, i32 0
  %30 = extractvalue { i64, i64 } %27, 0
  store i64 %30, ptr %29, align 8
  %31 = getelementptr inbounds nuw { i64, i64 }, ptr %11, i32 0, i32 1
  %32 = extractvalue { i64, i64 } %27, 1
  store i64 %32, ptr %31, align 8
  %33 = getelementptr inbounds [2 x %struct.timeval], ptr %10, i64 0, i64 0
  call void @llvm.memcpy.p0.p0.i64(ptr align 16 %33, ptr align 8 %11, i64 16, i1 false), !tbaa.struct !61
  call void @llvm.lifetime.end.p0(i64 16, ptr %11) #14
  call void @llvm.lifetime.start.p0(i64 16, ptr %12) #14
  %34 = invoke { i64, i64 } @_ZNK4base4Time9ToTimeValEv(ptr noundef nonnull align 8 dereferenceable(8) %5)
          to label %35 unwind label %54

35:                                               ; preds = %28
  %36 = getelementptr inbounds nuw { i64, i64 }, ptr %12, i32 0, i32 0
  %37 = extractvalue { i64, i64 } %34, 0
  store i64 %37, ptr %36, align 8
  %38 = getelementptr inbounds nuw { i64, i64 }, ptr %12, i32 0, i32 1
  %39 = extractvalue { i64, i64 } %34, 1
  store i64 %39, ptr %38, align 8
  %40 = getelementptr inbounds [2 x %struct.timeval], ptr %10, i64 0, i64 1
  call void @llvm.memcpy.p0.p0.i64(ptr align 16 %40, ptr align 8 %12, i64 16, i1 false), !tbaa.struct !61
  call void @llvm.lifetime.end.p0(i64 16, ptr %12) #14
  %41 = getelementptr inbounds nuw %"class.base::File", ptr %17, i32 0, i32 0
  %42 = invoke noundef nonnull align 4 dereferenceable(4) ptr @_ZNK4base13ScopedGenericIiNS_8internal19ScopedFDCloseTraitsEE3getEv(ptr noundef nonnull align 4 dereferenceable(4) %41)
          to label %43 unwind label %58

43:                                               ; preds = %35
  %44 = load i32, ptr %42, align 4, !tbaa !41
  %45 = getelementptr inbounds [2 x %struct.timeval], ptr %10, i64 0, i64 0
  %46 = invoke noundef i32 @_ZN4base12_GLOBAL__N_111CallFutimesEiPK7timeval(i32 noundef %44, ptr noundef %45)
          to label %47 unwind label %58

47:                                               ; preds = %43
  %48 = icmp ne i32 %46, 0
  %49 = xor i1 %48, true
  call void @llvm.lifetime.end.p0(i64 32, ptr %10) #14
  call void @_ZN4base11FileTracing11ScopedTraceD1Ev(ptr noundef nonnull align 8 dereferenceable(16) %7) #14
  call void @llvm.lifetime.end.p0(i64 16, ptr %7) #14
  ret i1 %49

50:                                               ; preds = %26
  %51 = landingpad { ptr, i32 }
          cleanup
  %52 = extractvalue { ptr, i32 } %51, 0
  store ptr %52, ptr %8, align 8
  %53 = extractvalue { ptr, i32 } %51, 1
  store i32 %53, ptr %9, align 4
  call void @llvm.lifetime.end.p0(i64 16, ptr %11) #14
  br label %62

54:                                               ; preds = %28
  %55 = landingpad { ptr, i32 }
          cleanup
  %56 = extractvalue { ptr, i32 } %55, 0
  store ptr %56, ptr %8, align 8
  %57 = extractvalue { ptr, i32 } %55, 1
  store i32 %57, ptr %9, align 4
  call void @llvm.lifetime.end.p0(i64 16, ptr %12) #14
  br label %62

58:                                               ; preds = %43, %35
  %59 = landingpad { ptr, i32 }
          cleanup
  %60 = extractvalue { ptr, i32 } %59, 0
  store ptr %60, ptr %8, align 8
  %61 = extractvalue { ptr, i32 } %59, 1
  store i32 %61, ptr %9, align 4
  br label %62

62:                                               ; preds = %58, %54, %50
  call void @llvm.lifetime.end.p0(i64 32, ptr %10) #14
  br label %63

63:                                               ; preds = %62, %22
  call void @_ZN4base11FileTracing11ScopedTraceD1Ev(ptr noundef nonnull align 8 dereferenceable(16) %7) #14
  call void @llvm.lifetime.end.p0(i64 16, ptr %7) #14
  br label %64

64:                                               ; preds = %63
  %65 = load ptr, ptr %8, align 8
  %66 = load i32, ptr %9, align 4
  %67 = insertvalue { ptr, i32 } poison, ptr %65, 0
  %68 = insertvalue { ptr, i32 } %67, i32 %66, 1
  resume { ptr, i32 } %68
}