; Function Attrs: mustprogress uwtable
define noundef zeroext i1 @_ZN4base4File8SetTimesENS_4TimeES1_(ptr noundef nonnull align 8 dereferenceable(50) %0, i64 %1, i64 %2) local_unnamed_addr #0 align 2 personality ptr @__gxx_personality_v0 {
  %4 = alloca [2 x %struct.timespec], align 16
  %5 = alloca %"class.base::Time", align 8
  %6 = alloca %"class.base::Time", align 8
  %7 = alloca %"class.base::FileTracing::ScopedTrace", align 8
  store i64 %1, ptr %5, align 8
  store i64 %2, ptr %6, align 8
  call void @llvm.lifetime.start.p0(i64 16, ptr nonnull %7) #14
  call void @_ZN4base11FileTracing11ScopedTraceC1Ev(ptr noundef nonnull align 8 dereferenceable(16) %7)
  %8 = invoke noundef zeroext i1 @_ZN4base11FileTracing17IsCategoryEnabledEv()
          to label %9 unwind label %11

9:                                                ; preds = %3
  br i1 %8, label %10, label %13

10:                                               ; preds = %9
  invoke void @_ZN4base11FileTracing11ScopedTrace10InitializeEPKcPKNS_4FileEl(ptr noundef nonnull align 8 dereferenceable(16) %7, ptr noundef nonnull @.str.11, ptr noundef nonnull %0, i64 noundef 0)
          to label %13 unwind label %11

11:                                               ; preds = %10, %3
  %12 = landingpad { ptr, i32 }
          cleanup
  br label %33

13:                                               ; preds = %10, %9
  %14 = invoke { i64, i64 } @_ZNK4base4Time9ToTimeValEv(ptr noundef nonnull align 8 dereferenceable(8) %5)
          to label %15 unwind label %29

15:                                               ; preds = %13
  %16 = invoke { i64, i64 } @_ZNK4base4Time9ToTimeValEv(ptr noundef nonnull align 8 dereferenceable(8) %6)
          to label %17 unwind label %31

17:                                               ; preds = %15
  %18 = extractvalue { i64, i64 } %14, 1
  %19 = extractvalue { i64, i64 } %14, 0
  %20 = extractvalue { i64, i64 } %16, 0
  %21 = extractvalue { i64, i64 } %16, 1
  %22 = load i32, ptr %0, align 8, !tbaa !27
  call void @llvm.lifetime.start.p0(i64 32, ptr nonnull %4) #14
  store i64 %19, ptr %4, align 16, !tbaa !41
  %23 = mul nsw i64 %18, 1000
  %24 = getelementptr inbounds nuw i8, ptr %4, i64 8
  store i64 %23, ptr %24, align 8, !tbaa !42
  %25 = getelementptr inbounds nuw i8, ptr %4, i64 16
  store i64 %20, ptr %25, align 16, !tbaa !41
  %26 = mul nsw i64 %21, 1000
  %27 = getelementptr inbounds nuw i8, ptr %4, i64 24
  store i64 %26, ptr %27, align 8, !tbaa !42
  %28 = call noundef i32 @futimens(i32 noundef %22, ptr noundef nonnull %4) #14
  call void @llvm.lifetime.end.p0(i64 32, ptr nonnull %4) #14
  %.not = icmp eq i32 %28, 0
  call void @_ZN4base11FileTracing11ScopedTraceD1Ev(ptr noundef nonnull align 8 dereferenceable(16) %7) #14
  call void @llvm.lifetime.end.p0(i64 16, ptr nonnull %7) #14
  ret i1 %.not

29:                                               ; preds = %13
  %30 = landingpad { ptr, i32 }
          cleanup
  br label %33

31:                                               ; preds = %15
  %32 = landingpad { ptr, i32 }
          cleanup
  br label %33

33:                                               ; preds = %29, %31, %11
  %.pn.pn = phi { ptr, i32 } [ %12, %11 ], [ %32, %31 ], [ %30, %29 ]
  call void @_ZN4base11FileTracing11ScopedTraceD1Ev(ptr noundef nonnull align 8 dereferenceable(16) %7) #14
  call void @llvm.lifetime.end.p0(i64 16, ptr nonnull %7) #14
  resume { ptr, i32 } %.pn.pn
}